(dp0
S'KJXN'
p1
(lp2
S'JACKSON COUNTY AP'
p3
aS'MI'
p4
aF-84.466
aF42.266
aF998.0
asS'KPSF'
p5
(lp6
S'PITTSFIELD MUNI AP'
p7
aS'MA'
p8
aF-73.289
aF42.426
aF1194.0
asS'KHTL'
p9
(lp10
S'HOUGHTON ROSCOMMON AP'
p11
aS'MI'
p12
aF-84.673
aF44.359
aF1151.0
asS'KSLK'
p13
(lp14
S'SARANAC RGNL AP'
p15
aS'NY'
p16
aF-74.206
aF44.385
aF-9999.0
asS'KAKR'
p17
(lp18
S'AKRON FULTON INTL AP'
p19
aS'OH'
p20
aF-81.464
aF41.037
aF1044.0
asS'KALB'
p21
(lp22
S'ALBANY INTL AP'
p23
aS'NY'
p24
aF-73.799
aF42.747
aF280.0
asS'KTDZ'
p25
(lp26
S'TOLEDO METCALF FLD'
p27
aS'OH'
p28
aF-83.476
aF41.563
aF-9999.0
asS'KJKL'
p29
(lp30
S'JACKSON WSO'
p31
aS'KY'
p32
aF-83.314
aF37.591
aF1365.0
asS'KPLN'
p33
(lp34
S'PELLSTON RGNL AP'
p35
aS'MI'
p36
aF-84.792
aF45.564
aF705.0
asS'KHTS'
p37
(lp38
S'HUNTINGTON TRI-STATE AP'
p39
aS'WV'
p40
aF-82.554
aF38.365
aF824.0
asS'KILG'
p41
(lp42
S'WILMINGTON NEW CASTLE CO AP'
p43
aS'DE'
p44
aF-75.605
aF39.674
aF79.0
asS'KBEH'
p45
(lp46
S'BENTON HARBOR AIRPORT ASOS'
p47
aS'MI'
p48
aF-86.428
aF42.125
aF643.0
asS'KDTW'
p49
(lp50
S'DETROIT METRO AP'
p51
aS'MI'
p52
aF-83.33
aF42.231
aF631.0
asS'KDKK'
p53
(lp54
S'DUNKIRK CHAUTAUQUA AP'
p55
aS'NY'
p56
aF-79.272
aF42.493
aF666.0
asS'KMIE'
p57
(lp58
S'MUNCIE DELAWARE CO AP'
p59
aS'IN'
p60
aF-85.393
aF40.234
aF-9999.0
asS'KCXY'
p61
(lp62
S'HARRISBURG CPTL CY AP'
p63
aS'PA'
p64
aF-76.851
aF40.217
aF340.0
asS'KBKL'
p65
(lp66
S'CLEVELAND BURKE AP'
p67
aS'OH'
p68
aF-81.683
aF41.517
aF-9999.0
asS'KANJ'
p69
(lp70
S'SAULT STE MARIE SNDRSN'
p71
aS'MI'
p72
aF-84.357
aF46.479
aF722.0
asS'KMIV'
p73
(lp74
S'MILLVILLE MUNI AP'
p75
aS'NJ'
p76
aF-75.077
aF39.366
aF60.0
asS'KCAK'
p77
(lp78
S'AKRON CANTON AP'
p79
aS'OH'
p80
aF-81.443
aF40.918
aF1213.0
asS'KCKB'
p81
(lp82
S'CLARKSBURG BENEDUM AP'
p83
aS'WV'
p84
aF-80.228
aF39.295
aF-9999.0
asS'KHUL'
p85
(lp86
S'HOULTON AP'
p87
aS'ME'
p88
aF-67.792
aF46.118
aF476.0
asS'KCHO'
p89
(lp90
S'CHARLOTTESVILLE-ALBEMARLE AP'
p91
aS'VA'
p92
aF-78.455
aF38.137
aF640.0
asS'KPTW'
p93
(lp94
S'HERITAGE FLD AP'
p95
aS'PA'
p96
aF-75.554
aF40.238
aF288.0
asS'KHUF'
p97
(lp98
S'TERRE HAUTE HULMAN RGNL AP'
p99
aS'IN'
p100
aF-87.308
aF39.451
aF575.0
asS'KPEO'
p101
(lp102
S'PENN YAN AP'
p103
aS'NY'
p104
aF-77.056
aF42.642
aF-9999.0
asS'KERI'
p105
(lp106
S'ERIE INTL AP'
p107
aS'PA'
p108
aF-80.182
aF42.08
aF729.0
asS'KDDH'
p109
(lp110
S'BENNINGTON AP'
p111
aS'VT'
p112
aF-73.248
aF42.893
aF790.0
asS'KAKQ'
p113
(lp114
S'WAKEFIELD MUNI AP'
p115
aS'VA'
p116
aF-77.001
aF36.982
aF111.0
asS'KISP'
p117
(lp118
S'ISLIP-LI MACARTHUR AP'
p119
aS'NY'
p120
aF-73.101
aF40.793
aF84.0
asS'KOWD'
p121
(lp122
S'NORWOOD MEM AP'
p123
aS'MA'
p124
aF-71.173
aF42.19
aF50.0
asS'KPTK'
p125
(lp126
S'PONTIAC OAKLAND CO INTL AP'
p127
aS'MI'
p128
aF-83.418
aF42.665
aF976.0
asS'KDUJ'
p129
(lp130
S'DUBOIS RGNL AP'
p131
aS'PA'
p132
aF-78.893
aF41.179
aF1805.0
asS'KFIT'
p133
(lp134
S'FITCHBURG MUNI AP'
p135
aS'MA'
p136
aF-71.755
aF42.551
aF-9999.0
asS'KGKJ'
p137
(lp138
S'PORT MEADVILLE AP'
p139
aS'PA'
p140
aF-80.215
aF41.626
aF-9999.0
asS'KBDR'
p141
(lp142
S'IGOR I SIKORSKY MEMORI AP'
p143
aS'CT'
p144
aF-73.128
aF41.158
aF5.0
asS'KELM'
p145
(lp146
S'ELMIRA CORNING RGNL AP'
p147
aS'NY'
p148
aF-76.891
aF42.159
aF-9999.0
asS'KTTN'
p149
(lp150
S'TRENTON-MERCER AP'
p151
aS'NJ'
p152
aF-74.815
aF40.276
aF190.0
asS'KMPV'
p153
(lp154
S'MONTPELIER AP'
p155
aS'VT'
p156
aF-72.562
aF44.203
aF1126.0
asS'KADG'
p157
(lp158
S'ADRIAN LENAWEE CO AP'
p159
aS'MI'
p160
aF-84.079
aF41.867
aF796.0
asS'KTAN'
p161
(lp162
S'TAUNTON MUNI AP'
p163
aS'MA'
p164
aF-71.021
aF41.875
aF-9999.0
asS'KVAY'
p165
(lp166
S'S JERSEY RGNL AP'
p167
aS'NJ'
p168
aF-74.84
aF39.94
aF49.0
asS'KLPR'
p169
(lp170
S'ELYRIA LORAIN CO AP'
p171
aS'OH'
p172
aF-82.179
aF41.346
aF-9999.0
asS'KMHT'
p173
(lp174
S'MANCHESTER AP'
p175
aS'NH'
p176
aF-71.435
aF42.932
aF221.0
asS'KMPO'
p177
(lp178
S'MT POCONO MOUNTAINS AP'
p179
aS'PA'
p180
aF-75.379
aF41.138
aF-9999.0
asS'KMMK'
p181
(lp182
S'MERIDEN MARKHAM MUNI AP'
p183
aS'CT'
p184
aF-72.827
aF41.509
aF-9999.0
asS'KELZ'
p185
(lp186
S'WELLSVILLE MUNI AP'
p187
aS'NY'
p188
aF-77.991
aF42.109
aF2124.0
asS'KMRB'
p189
(lp190
S'MARTINSBURG E W VIRGINIA RGNL'
p191
aS'WV'
p192
aF-77.945
aF39.403
aF534.0
asS'KILN'
p193
(lp194
S'WILMINGTON AIR PK'
p195
aS'OH'
p196
aF-83.776
aF39.43
aF1067.0
asS'KVPZ'
p197
(lp198
S'VALPARAISO PORTER CO MUNI AP'
p199
aS'IN'
p200
aF-87.005
aF41.452
aF-9999.0
asS'KHVN'
p201
(lp202
S'NEW HAVEN TWEED AP'
p203
aS'CT'
p204
aF-72.887
aF41.263
aF3.0
asS'KORE'
p205
(lp206
S'ORANGE MUNI AP'
p207
aS'MA'
p208
aF-72.291
aF42.57
aF-9999.0
asS'KORF'
p209
(lp210
S'NORFOLK INTL AP'
p211
aS'VA'
p212
aF-76.192
aF36.903
aF30.0
asS'KLAF'
p213
(lp214
S'LAFAYETTE PURDUE UNIV AP'
p215
aS'IN'
p216
aF-86.936
aF40.412
aF599.0
asS'KCVG'
p217
(lp218
S'CINCINNATI/NORTHERN KENTUCKY I'
p219
aS'KY'
p220
aF-84.672
aF39.044
aF883.0
asS'KGFL'
p221
(lp222
S'GLENS FALLS AP'
p223
aS'NY'
p224
aF-73.61
aF43.338
aF321.0
asS'KHFD'
p225
(lp226
S'HARTFORD BRAINARD FLD'
p227
aS'CT'
p228
aF-72.65
aF41.736
aF19.0
asS'KPYM'
p229
(lp230
S'PLYMOUTH MUNI AP'
p231
aS'MA'
p232
aF-70.729
aF41.909
aF-9999.0
asS'KLAN'
p233
(lp234
S'LANSING CAPITAL CITY AP'
p235
aS'MI'
p236
aF-84.599
aF42.776
aF859.0
asS'KROC'
p237
(lp238
S'ROCHESTER GTR INTL'
p239
aS'NY'
p240
aF-77.676
aF43.116
aF539.0
asS'KVSF'
p241
(lp242
S'SPRINGFIELD HARTNESS AP'
p243
aS'VT'
p244
aF-72.517
aF43.343
aF578.0
asS'KIND'
p245
(lp246
S'INDIANAPOLIS INTL AP'
p247
aS'IN'
p248
aF-86.281
aF39.725
aF791.0
asS'KHYA'
p249
(lp250
S'HYANNIS BARNSTABLE MUNI AP'
p251
aS'MA'
p252
aF-70.28
aF41.668
aF-9999.0
asS'KBML'
p253
(lp254
S'BERLIN MUNI AP'
p255
aS'NH'
p256
aF-71.178
aF44.576
aF-9999.0
asS'KMKG'
p257
(lp258
S'MUSKEGON CO AP'
p259
aS'MI'
p260
aF-86.236
aF43.171
aF625.0
asS'KBMG'
p261
(lp262
S'BLOOMINGTON MONROE CO AP'
p263
aS'IN'
p264
aF-86.616
aF39.133
aF844.0
asS'KCON'
p265
(lp266
S'CONCORD ASOS'
p267
aS'NH'
p268
aF-71.502
aF43.204
aF343.0
asS'KAGC'
p269
(lp270
S'PITTSBURGH ALLEGHENY CO AP'
p271
aS'PA'
p272
aF-79.921
aF40.354
aF1248.0
asS'KAVP'
p273
(lp274
S'WILKES-BARRE INTL AP'
p275
aS'PA'
p276
aF-75.726
aF41.333
aF930.0
asS'KSDF'
p277
(lp278
S'LOUISVILLE INTL AP'
p279
aS'KY'
p280
aF-85.739
aF38.181
aF488.0
asS'KPAH'
p281
(lp282
S'PADUCAH BARKLEY AP'
p283
aS'KY'
p284
aF-88.774
aF37.056
aF413.0
asS'KEVV'
p285
(lp286
S'EVANSVILLE REGIONAL AP'
p287
aS'IN'
p288
aF-87.52
aF38.044
aF400.0
asS'KRME'
p289
(lp290
S'ROME GRIFFISS AIRFIELD'
p291
aS'NY'
p292
aF-75.411
aF43.233
aF-9999.0
asS'KDCA'
p293
(lp294
S'WASHINGTON REAGAN NATL AP'
p295
aS'VA'
p296
aF-77.034
aF38.847
aF10.0
asS'KSMQ'
p297
(lp298
S'SOMERSET AP'
p299
aS'NJ'
p300
aF-74.669
aF40.624
aF105.0
asS'KMBS'
p301
(lp302
S'SAGINAW MBS INTL AP'
p303
aS'MI'
p304
aF-84.079
aF43.533
aF660.0
asS'K12N'
p305
(lp306
S'AEROFLEX-ANDOVER AP'
p307
aS'NJ'
p308
aF-74.736
aF41.009
aF580.0
asS'K'
p309
(lp310
S'POCONO MOUNTAINS MUNI AP'
p311
aS'PA'
p312
aF-75.377
aF41.136
aF1886.0
asS'KFIG'
p313
(lp314
S'CLEARFIELD LAWRENCE AP'
p315
aS'PA'
p316
aF-78.411
aF41.046
aF-9999.0
asS'KPKB'
p317
(lp318
S'PARKERSBURG AP'
p319
aS'WV'
p320
aF-81.443
aF39.339
aF831.0
asS'KIMT'
p321
(lp322
S'IRON MTN FORD AP'
p323
aS'MI'
p324
aF-88.114
aF45.818
aF-9999.0
asS'KCAR'
p325
(lp326
S'CARIBOU WFO'
p327
aS'ME'
p328
aF-68.017
aF46.87
aF624.0
asS'KGRR'
p329
(lp330
S'GERALD R FORD INTL AP'
p331
aS'MI'
p332
aF-85.523
aF42.882
aF803.0
asS'KAUG'
p333
(lp334
S'AUGUSTA STATE AIRPORT'
p335
aS'ME'
p336
aF-69.797
aF44.315
aF351.0
asS'KP75'
p337
(lp338
S'MANISTIQUE'
p339
aS'MI'
p340
aF-86.229
aF45.95
aF584.0
asS'KBOS'
p341
(lp342
S'BOSTON INTL'
p343
aS'MA'
p344
aF-71.009
aF42.36
aF12.0
asS'KSBY'
p345
(lp346
S'SALISBURY-WICOMICO RGNL AP'
p347
aS'MD'
p348
aF-75.513
aF38.34
aF47.0
asS'KJST'
p349
(lp350
S'JOHNSTOWN CAMBRIA CO AP'
p351
aS'PA'
p352
aF-78.833
aF40.316
aF-9999.0
asS'KDSV'
p353
(lp354
S'DANSVILLE MUNI AP'
p355
aS'NY'
p356
aF-77.713
aF42.57
aF-9999.0
asS'KBJJ'
p357
(lp358
S'WOOSTER WAYNE CO AP'
p359
aS'OH'
p360
aF-81.886
aF40.873
aF-9999.0
asS'KPHL'
p361
(lp362
S'PHILA INTL AP'
p363
aS'PA'
p364
aF-75.226
aF39.873
aF10.0
asS'KPBG'
p365
(lp366
S'PLATTSBURGH INTL AP'
p367
aS'NY'
p368
aF-73.466
aF44.65
aF-9999.0
asS'KSBN'
p369
(lp370
S'S BEND AP'
p371
aS'IN'
p372
aF-86.316
aF41.707
aF773.0
asS'KYIP'
p373
(lp374
S'DETROIT WILLOW RUN AP'
p375
aS'MI'
p376
aF-83.533
aF42.233
aF777.0
asS'KAFN'
p377
(lp378
S'JAFFREY MUNI AP'
p379
aS'NH'
p380
aF-72.003
aF42.805
aF1040.0
asS'KCQX'
p381
(lp382
S'CHATHAM MUNI AP'
p383
aS'MA'
p384
aF-69.993
aF41.687
aF-9999.0
asS'KHZY'
p385
(lp386
S'ASHTABULA CO AP'
p387
aS'OH'
p388
aF-80.695
aF41.778
aF-9999.0
asS'KFRG'
p389
(lp390
S'FARMINGDALE AP'
p391
aS'NY'
p392
aF-73.416
aF40.734
aF-9999.0
asS'KWST'
p393
(lp394
S'WESTERLY STATE AP'
p395
aS'RI'
p396
aF-71.798
aF41.349
aF-9999.0
asS'KPWM'
p397
(lp398
S'PORTLAND JETPORT'
p399
aS'ME'
p400
aF-70.304
aF43.642
aF45.0
asS'KLOZ'
p401
(lp402
S'LONDON FAA AP'
p403
aS'KY'
p404
aF-84.076
aF37.087
aF1188.0
asS'KHWV'
p405
(lp406
S'SHIRLEY BROOKHAVEN AP'
p407
aS'NY'
p408
aF-72.868
aF40.821
aF-9999.0
asS'KLOU'
p409
(lp410
S'LOUISVILLE BOWMAN FLD'
p411
aS'KY'
p412
aF-85.663
aF38.228
aF540.0
asS'KUUU'
p413
(lp414
S'NEWPORT STATE AP'
p415
aS'RI'
p416
aF-71.283
aF41.533
aF-9999.0
asS'KHPN'
p417
(lp418
S'WESTCHESTER CO AP'
p419
aS'NY'
p420
aF-73.707
aF41.066
aF379.0
asS'KFDY'
p421
(lp422
S'FINDLAY FAA AP'
p423
aS'OH'
p424
aF-83.668
aF41.013
aF800.0
asS'KBDL'
p425
(lp426
S'HARTFORD-BRADLEY INTL AP'
p427
aS'CT'
p428
aF-72.681
aF41.937
aF175.0
asS'KPHD'
p429
(lp430
S'NEW PHILADELPHIA FLD'
p431
aS'OH'
p432
aF-81.423
aF40.471
aF-9999.0
asS'KPHF'
p433
(lp434
S'NEWPORT NEWS INTL AP'
p435
aS'VA'
p436
aF-76.493
aF37.131
aF-9999.0
asS'KRDG'
p437
(lp438
S'READING RGNL AP'
p439
aS'PA'
p440
aF-75.959
aF40.373
aF344.0
asS'KTHV'
p441
(lp442
S'YORK AP'
p443
aS'PA'
p444
aF-76.874
aF39.918
aF-9999.0
asS'KORH'
p445
(lp446
S'WORCESTER'
p447
aS'MA'
p448
aF-71.873
aF42.27
aF1000.0
asS'KAPN'
p449
(lp450
S'ALPENA CO RGNL AP'
p451
aS'MI'
p452
aF-83.564
aF45.071
aF684.0
asS'KFWA'
p453
(lp454
S'FORT WAYNE AP'
p455
aS'IN'
p456
aF-85.206
aF40.97
aF791.0
asS'KBTV'
p457
(lp458
S'BURLINGTON INTL AP'
p459
aS'VT'
p460
aF-73.149
aF44.468
aF330.0
asS'KBGR'
p461
(lp462
S'BANGOR INTL AP'
p463
aS'ME'
p464
aF-68.818
aF44.797
aF148.0
asS'KHLG'
p465
(lp466
S'WHEELING OHIO CO AP'
p467
aS'WV'
p468
aF-80.647
aF40.176
aF1179.0
asS'KFWN'
p469
(lp470
S'SUSSEX AP'
p471
aS'NJ'
p472
aF-74.625
aF41.199
aF410.0
asS'KDXR'
p473
(lp474
S'DANBURY MUNI AP'
p475
aS'CT'
p476
aF-73.482
aF41.371
aF-9999.0
asS'KTEB'
p477
(lp478
S'TETERBORO AP'
p479
aS'NJ'
p480
aF-74.061
aF40.85
aF-9999.0
asS'KLWM'
p481
(lp482
S'LAWRENCE MUNI AP'
p483
aS'MA'
p484
aF-71.123
aF42.717
aF-9999.0
asS'KSYR'
p485
(lp486
S'SYRACUSE HANCOCK INTL AP'
p487
aS'NY'
p488
aF-76.103
aF43.111
aF413.0
asS'KBKW'
p489
(lp490
S'BECKLEY RALEIGH CO AP'
p491
aS'WV'
p492
aF-81.123
aF37.783
aF2514.0
asS'KIWI'
p493
(lp494
S'WISCASSET AP'
p495
aS'ME'
p496
aF-69.711
aF43.963
aF-9999.0
asS'KAOH'
p497
(lp498
S'LIMA AP'
p499
aS'OH'
p500
aF-84.027
aF40.707
aF975.0
asS'KBED'
p501
(lp502
S'BEDFORD HANSCOM FLD'
p503
aS'MA'
p504
aF-71.289
aF42.47
aF-9999.0
asS'KAOO'
p505
(lp506
S'ALTOONA BLAIR CO AP'
p507
aS'PA'
p508
aF-78.32
aF40.296
aF1480.0
asS'KGLR'
p509
(lp510
S'GAYLORD OTSEGO CO AP'
p511
aS'MI'
p512
aF-84.701
aF45.013
aF1335.0
asS'KMLT'
p513
(lp514
S'MILLINOCKET MUNI AP'
p515
aS'ME'
p516
aF-68.692
aF45.647
aF406.0
asS'KPIA'
p517
(lp518
S'PEORIA INTL AP'
p519
aS'IL'
p520
aF-89.693
aF40.664
aF661.0
asS'KP58'
p521
(lp522
S'PORT HOPE'
p523
aS'MI'
p524
aF-82.793
aF44.021
aF590.0
asS'KP59'
p525
(lp526
S'COPPER HARBOR'
p527
aS'MI'
p528
aF-87.883
aF47.466
aF626.0
asS'KMDT'
p529
(lp530
S'MIDDLETOWN HARRISBURG INTL AP'
p531
aS'PA'
p532
aF-76.772
aF40.196
aF312.0
asS'KTOL'
p533
(lp534
S'TOLEDO EXPRESS AP'
p535
aS'OH'
p536
aF-83.805
aF41.587
aF674.0
asS'KMSS'
p537
(lp538
S'MASSENA INTL AP'
p539
aS'NY'
p540
aF-74.845
aF44.935
aF214.0
asS'KZZV'
p541
(lp542
S'ZANESVILLE FAA AP'
p543
aS'OH'
p544
aF-81.892
aF39.944
aF880.0
asS'KLYH'
p545
(lp546
S'LYNCHBURG INTL AP'
p547
aS'VA'
p548
aF-79.206
aF37.32
aF940.0
asS'KHIE'
p549
(lp550
S'WHITEFIELD MT WASHINGTON AP'
p551
aS'NH'
p552
aF-71.545
aF44.367
aF-9999.0
asS'KDAW'
p553
(lp554
S'ROCHESTER SKYHAVEN AP'
p555
aS'NH'
p556
aF-70.922
aF43.278
aF-9999.0
asS'KOSU'
p557
(lp558
S'COLUMBUS OHIO STATE UNIV AP'
p559
aS'OH'
p560
aF-83.078
aF40.078
aF-9999.0
asS'KSEG'
p561
(lp562
S'SELINSGROVE PENN VLY AP'
p563
aS'PA'
p564
aF-76.864
aF40.82
aF444.0
asS'KPIT'
p565
(lp566
S'PITTSBURGH ASOS'
p567
aS'PA'
p568
aF-80.214
aF40.484
aF1203.0
asS'KIZG'
p569
(lp570
S'FRYEBURG E SLOPES AP'
p571
aS'ME'
p572
aF-70.947
aF43.99
aF445.0
asS'KFZY'
p573
(lp574
S'FULTON OSWEGO CO AP'
p575
aS'NY'
p576
aF-76.384
aF43.349
aF-9999.0
asS'KMTP'
p577
(lp578
S'MONTAUK AP'
p579
aS'NY'
p580
aF-71.923
aF41.073
aF7.0
asS'KHAO'
p581
(lp582
S'HAMILTON BUTLER CO RGNL AP'
p583
aS'OH'
p584
aF-84.524
aF39.364
aF-9999.0
asS'KEWR'
p585
(lp586
S'NEWARK LIBERTY INTL AP'
p587
aS'NJ'
p588
aF-74.169
aF40.682
aF7.0
asS'KIPT'
p589
(lp590
S'WILLIAMSPORT RGNL AP'
p591
aS'PA'
p592
aF-76.921
aF41.243
aF520.0
asS'KDYL'
p593
(lp594
S'DOYLESTOWN AP'
p595
aS'PA'
p596
aF-75.122
aF40.33
aF394.0
asS'KBLF'
p597
(lp598
S'BLUEFIELD MERCER CO AP'
p599
aS'WV'
p600
aF-81.203
aF37.297
aF2856.0
asS'KLGA'
p601
(lp602
S'LA GUARDIA AP'
p603
aS'NY'
p604
aF-73.88
aF40.779
aF11.0
asS'KOXB'
p605
(lp606
S'OCEAN CITY MUNI AP'
p607
aS'MD'
p608
aF-75.123
aF38.308
aF-9999.0
asS'KFVE'
p609
(lp610
S'FRENCHVILLE AROOSTOOK AP'
p611
aS'ME'
p612
aF-68.313
aF47.285
aF-9999.0
asS'KDAY'
p613
(lp614
S'DAYTON INTL AP'
p615
aS'OH'
p616
aF-84.218
aF39.906
aF1003.0
asS'KCDW'
p617
(lp618
S'CALDWELL ESSEX CO AP'
p619
aS'NJ'
p620
aF-74.283
aF40.876
aF-9999.0
asS'KBUF'
p621
(lp622
S'BUFFALO NIAGARA INTL'
p623
aS'NY'
p624
aF-78.735
aF42.94
aF716.0
asS'KEWB'
p625
(lp626
S'NEW BEDFORD MUNI AP'
p627
aS'MA'
p628
aF-70.958
aF41.676
aF-9999.0
asS'KLHQ'
p629
(lp630
S'LANCASTER FAIRFIELD AP'
p631
aS'OH'
p632
aF-82.657
aF39.755
aF-9999.0
asS'KBTL'
p633
(lp634
S'BATTLE CREEK KELLOGG AP'
p635
aS'MI'
p636
aF-85.251
aF42.307
aF928.0
asS'KGON'
p637
(lp638
S'GROTON NEW LONDON AP'
p639
aS'CT'
p640
aF-72.049
aF41.327
aF10.0
asS'KCLE'
p641
(lp642
S'CLEVELAND-HOPKINS INTL AP'
p643
aS'OH'
p644
aF-81.852
aF41.405
aF781.0
asS'KLEB'
p645
(lp646
S'LEBANON MUNI AP'
p647
aS'NH'
p648
aF-72.304
aF43.626
aF598.0
asS'KDAN'
p649
(lp650
S'DANVILLE RGNL AP'
p651
aS'VA'
p652
aF-79.335
aF36.572
aF571.0
asS'K1V4'
p653
(lp654
S'SAINT JOHNSBURY ASOS'
p655
aS'VT'
p656
aF-72.019
aF44.42
aF697.0
asS'KMVY'
p657
(lp658
S'VINEYARD HAVEN AP'
p659
aS'MA'
p660
aF-70.615
aF41.393
aF-9999.0
asS'KIJD'
p661
(lp662
S'WILLIMANTIC WINDHAM AP'
p663
aS'CT'
p664
aF-72.183
aF41.741
aF-9999.0
asS'KART'
p665
(lp666
S'WATERTOWN AP'
p667
aS'NY'
p668
aF-76.026
aF43.988
aF318.0
asS'KMGJ'
p669
(lp670
S'MONTGOMERY ORANGE AP'
p671
aS'NY'
p672
aF-74.265
aF41.509
aF-9999.0
asS'KFFT'
p673
(lp674
S'FRANKFORT CAPITAL CITY AP'
p675
aS'KY'
p676
aF-84.903
aF38.184
aF-9999.0
asS'KBFD'
p677
(lp678
S'BRADFORD FAA AP'
p679
aS'PA'
p680
aF-78.633
aF41.8
aF2142.0
asS'KCRW'
p681
(lp682
S'CHARLESTON - YEAGER AP'
p683
aS'WV'
p684
aF-81.59
aF38.379
aF910.0
asS'KARB'
p685
(lp686
S'ANN ARBOR MUNI AP'
p687
aS'MI'
p688
aF-83.744
aF42.222
aF-9999.0
asS'KMGY'
p689
(lp690
S'DAYTON WRIGHT BROS AP'
p691
aS'OH'
p692
aF-84.226
aF39.593
aF-9999.0
asS'KPNE'
p693
(lp694
S'NE PHILA AP'
p695
aS'PA'
p696
aF-75.013
aF40.078
aF105.0
asS'KLEX'
p697
(lp698
S'LEXINGTON BLUEGRASS AP'
p699
aS'KY'
p700
aF-84.605
aF38.04
aF980.0
asS'KMGW'
p701
(lp702
S'MORGANTOWN HART FLD'
p703
aS'WV'
p704
aF-79.916
aF39.642
aF1240.0
asS'KBVY'
p705
(lp706
S'BEVERLY MUNI AP'
p707
aS'MA'
p708
aF-70.917
aF42.584
aF-9999.0
asS'KFNT'
p709
(lp710
S'FLINT FCWOS'
p711
aS'MI'
p712
aF-83.749
aF42.966
aF770.0
asS'KAZO'
p713
(lp714
S'KALAMAZOO BATTLE CK INTL AP'
p715
aS'MI'
p716
aF-85.551
aF42.234
aF868.0
asS'KACK'
p717
(lp718
S'NANTUCKET MEM AP'
p719
aS'MA'
p720
aF-70.06
aF41.253
aF-9999.0
asS'KDMH'
p721
(lp722
S'MARYLAND SCI CTR'
p723
aS'MD'
p724
aF-76.611
aF39.281
aF20.0
asS'KDET'
p725
(lp726
S'DETROIT CITY AP'
p727
aS'MI'
p728
aF-83.01
aF42.409
aF-9999.0
asS'KGSH'
p729
(lp730
S'GOSHEN AP'
p731
aS'IN'
p732
aF-85.783
aF41.533
aF830.0
asS'KYNG'
p733
(lp734
S'YOUNGSTOWN-WARREN RGNL AP'
p735
aS'OH'
p736
aF-80.673
aF41.254
aF1167.0
asS'KBIV'
p737
(lp738
S'HOLLAND TULIP CITY AP'
p739
aS'MI'
p740
aF-86.096
aF42.746
aF-9999.0
asS'KACY'
p741
(lp742
S'ATLANTIC CITY INTL AP'
p743
aS'NJ'
p744
aF-74.566
aF39.452
aF60.0
asS'KRIC'
p745
(lp746
S'RICHMOND INTL AP'
p747
aS'VA'
p748
aF-77.323
aF37.511
aF164.0
asS'KLUK'
p749
(lp750
S'CINCINNATI LUNKEN AP'
p751
aS'OH'
p752
aF-84.418
aF39.103
aF490.0
asS'KBAF'
p753
(lp754
S'WESTFIELD BARNES MUNI AP'
p755
aS'MA'
p756
aF-72.716
aF42.157
aF-9999.0
asS'KNYC'
p757
(lp758
S'NY CITY CNTRL PARK'
p759
aS'NY'
p760
aF-73.969
aF40.778
aF140.0
asS'KEKN'
p761
(lp762
S'ELKINS- RANDOLPH CO AP'
p763
aS'WV'
p764
aF-79.852
aF38.885
aF1979.0
asS'KAQW'
p765
(lp766
S'N ADAMS HARRIMAN AP'
p767
aS'MA'
p768
aF-73.169
aF42.697
aF640.0
asS'KBGM'
p769
(lp770
S'BINGHAMTON GREATER AP'
p771
aS'NY'
p772
aF-75.98
aF42.206
aF1595.0
asS'KPOU'
p773
(lp774
S'POUGHKEEPSIE AP'
p775
aS'NY'
p776
aF-73.881
aF41.625
aF166.0
asS'KMFD'
p777
(lp778
S'MANSFIELD LAHM RGNL AP'
p779
aS'OH'
p780
aF-82.517
aF40.82
aF1290.0
asS'KROA'
p781
(lp782
S'ROANOKE INTL AP'
p783
aS'VA'
p784
aF-79.974
aF37.316
aF1175.0
asS'KLNS'
p785
(lp786
S'LANCASTER AP'
p787
aS'PA'
p788
aF-76.294
aF40.12
aF-9999.0
asS'KGNR'
p789
(lp790
S'GREENVILLE MAINE FORESTRY SVC'
p791
aS'ME'
p792
aF-69.595
aF45.462
aF-9999.0
asS'KLFI'
p793
(lp794
S'LANGLEY AFB'
p795
aS'VA'
p796
aF-76.36
aF37.082
aF10.0
asS'KPVD'
p797
(lp798
S'PROVIDENCE'
p799
aS'RI'
p800
aF-71.432
aF41.722
aF55.0
asS'KMNN'
p801
(lp802
S'MARION MUNI AP'
p803
aS'OH'
p804
aF-83.063
aF40.616
aF-9999.0
asS'KVTA'
p805
(lp806
S'NEWARK HEATH AP'
p807
aS'OH'
p808
aF-82.462
aF40.022
aF-9999.0
asS'KJFK'
p809
(lp810
S'JFK INTL AP'
p811
aS'NY'
p812
aF-73.762
aF40.638
aF11.0
asS'KTVC'
p813
(lp814
S'TRAVERSE CITY FAA AP'
p815
aS'MI'
p816
aF-85.582
aF44.74
aF618.0
asS'KCMX'
p817
(lp818
S'HANCOCK HOUGHTON CO AP'
p819
aS'MI'
p820
aF-88.488
aF47.168
aF-9999.0
asS'KEYE'
p821
(lp822
S'INDIANAPOLIS EAGLE CREEK AP'
p823
aS'IN'
p824
aF-86.295
aF39.825
aF-9999.0
asS'KNFE'
p825
(lp826
S'FENTRESS NAAS'
p827
aS'VA'
p828
aF-76.135
aF36.695
aF-9999.0
asS'KWAL'
p829
(lp830
S'WALLOPS IS NASA TEST FACILITY'
p831
aS'VA'
p832
aF-75.466
aF37.937
aF46.0
asS'KHGR'
p833
(lp834
S'HAGERSTOWN RGNL AP'
p835
aS'MD'
p836
aF-77.73
aF39.706
aF705.0
asS'KFOK'
p837
(lp838
S'WESTHAMPTN GABRESKI AP'
p839
aS'NY'
p840
aF-72.632
aF40.843
aF-9999.0
asS'KGED'
p841
(lp842
S'GEORGETOWN-DELAWARE COASTAL AP'
p843
aS'DE'
p844
aF-75.362
aF38.689
aF46.0
asS'KABE'
p845
(lp846
S'ALLENTOWN LEHIGH VLY INTL AP'
p847
aS'PA'
p848
aF-75.447
aF40.649
aF390.0
asS'KIAG'
p849
(lp850
S'NIAGARA FALLS INTL AP'
p851
aS'NY'
p852
aF-78.938
aF43.108
aF585.0
asS'KIAD'
p853
(lp854
S'WASHINGTON DULLES INTL AP'
p855
aS'VA'
p856
aF-77.447
aF38.934
aF290.0
asS'KOFP'
p857
(lp858
S'ASHLAND HANOVER CO MUNI AP'
p859
aS'VA'
p860
aF-77.434
aF37.708
aF-9999.0
asS'KDFI'
p861
(lp862
S'DEFIANCE AP'
p863
aS'OH'
p864
aF-84.428
aF41.337
aF707.0
asS'KBWI'
p865
(lp866
S'BALTIMORE-WASHINGTON INTL AP'
p867
aS'MD'
p868
aF-76.684
aF39.173
aF156.0
asS'KBWG'
p869
(lp870
S'BOWLING GREEN RGNL AP'
p871
aS'KY'
p872
aF-86.423
aF36.964
aF528.0
asS'KCMH'
p873
(lp874
S'PORT COLUMBUS INTL AP'
p875
aS'OH'
p876
aF-82.877
aF39.99
aF816.0
asS'KGEZ'
p877
(lp878
S'SHELBYVILLE MUNI AP'
p879
aS'IN'
p880
aF-85.803
aF39.578
aF-9999.0
asS'KMVL'
p881
(lp882
S'MORRISVILLE STOWE STATE AP'
p883
aS'VT'
p884
aF-72.614
aF44.534
aF-9999.0
as.